target datalayout = "e-m:e-p270:32:32-p271:32:32-p272:64:64-i64:64-i128:128-f80:128-n8:16:32:64-S128"
target triple = "x86_64-pc-linux-gnu"

@.str = private unnamed_addr constant [35 x i8] c"hm_addhash_str: NULL root or hash\0A\00", align 1
@.str.1 = private unnamed_addr constant [43 x i8] c"hm_addhash_str: null or invalid size (%u)\0A\00", align 1
@.str.2 = private unnamed_addr constant [43 x i8] c"hm_addhash_str: invalid hash %s -- FIXME!\0A\00", align 1
@.str.3 = private unnamed_addr constant [33 x i8] c"hm_addhash_str: invalid hash %s\0A\00", align 1

; Function Attrs: nounwind uwtable
define i32 @hm_addhash_str(ptr noundef %0, ptr noundef %1, i32 noundef %2, ptr noundef %3) #0 {
  %5 = alloca i32, align 4
  %6 = alloca ptr, align 8
  %7 = alloca ptr, align 8
  %8 = alloca i32, align 4
  %9 = alloca ptr, align 8
  %10 = alloca i32, align 4
  %11 = alloca [32 x i8], align 16
  %12 = alloca i32, align 4
  store ptr %0, ptr %6, align 8
  store ptr %1, ptr %7, align 8
  store i32 %2, ptr %8, align 4
  store ptr %3, ptr %9, align 8
  %13 = load ptr, ptr %6, align 8
  %14 = icmp ne ptr %13, null
  br i1 %14, label %15, label %18

15:                                               ; preds = %4
  %16 = load ptr, ptr %7, align 8
  %17 = icmp ne ptr %16, null
  br i1 %17, label %19, label %18

18:                                               ; preds = %15, %4
  call void (ptr, ...) @cli_errmsg(ptr noundef @.str)
  store i32 2, ptr %5, align 4
  br label %50

19:                                               ; preds = %15
  %20 = load i32, ptr %8, align 4
  %21 = icmp eq i32 %20, -1
  br i1 %21, label %22, label %24

22:                                               ; preds = %19
  %23 = load i32, ptr %8, align 4
  call void (ptr, ...) @cli_errmsg(ptr noundef @.str.1, i32 noundef %23)
  store i32 3, ptr %5, align 4
  br label %50

24:                                               ; preds = %19
  %25 = load ptr, ptr %7, align 8
  %26 = call i64 @strlen(ptr noundef %25) #4
  %27 = trunc i64 %26 to i32
  store i32 %27, ptr %12, align 4
  %28 = load i32, ptr %12, align 4
  switch i32 %28, label %32 [
    i32 32, label %29
    i32 40, label %30
    i32 64, label %31
  ]

29:                                               ; preds = %24
  store i32 0, ptr %10, align 4
  br label %34

30:                                               ; preds = %24
  store i32 1, ptr %10, align 4
  br label %34

31:                                               ; preds = %24
  store i32 2, ptr %10, align 4
  br label %34

32:                                               ; preds = %24
  %33 = load ptr, ptr %7, align 8
  call void (ptr, ...) @cli_errmsg(ptr noundef @.str.2, ptr noundef %33)
  store i32 3, ptr %5, align 4
  br label %50

34:                                               ; preds = %31, %30, %29
  %35 = load ptr, ptr %7, align 8
  %36 = getelementptr inbounds [32 x i8], ptr %11, i64 0, i64 0
  %37 = load i32, ptr %12, align 4
  %38 = sext i32 %37 to i64
  %39 = call i32 @cli_hex2str_to(ptr noundef %35, ptr noundef %36, i64 noundef %38)
  %40 = icmp ne i32 %39, 0
  br i1 %40, label %41, label %43

41:                                               ; preds = %34
  %42 = load ptr, ptr %7, align 8
  call void (ptr, ...) @cli_errmsg(ptr noundef @.str.3, ptr noundef %42)
  store i32 3, ptr %5, align 4
  br label %50

43:                                               ; preds = %34
  %44 = load ptr, ptr %6, align 8
  %45 = getelementptr inbounds [32 x i8], ptr %11, i64 0, i64 0
  %46 = load i32, ptr %10, align 4
  %47 = load i32, ptr %8, align 4
  %48 = load ptr, ptr %9, align 8
  %49 = call i32 @hm_addhash_bin(ptr noundef %44, ptr noundef %45, i32 noundef %46, i32 noundef %47, ptr noundef %48)
  store i32 %49, ptr %5, align 4
  br label %50

50:                                               ; preds = %43, %41, %32, %22, %18
  %51 = load i32, ptr %5, align 4
  ret i32 %51
}