; Function Attrs: nounwind uwtable
define i32 @hm_addhash_str(ptr noundef %0, ptr noundef %1, i32 noundef %2, ptr noundef %3) local_unnamed_addr #0 {
  %5 = alloca [32 x i8], align 16
  %6 = icmp ne ptr %0, null
  %7 = icmp ne ptr %1, null
  %or.cond = and i1 %6, %7
  br i1 %or.cond, label %9, label %8

8:                                                ; preds = %4
  tail call void (ptr, ...) @cli_errmsg(ptr noundef nonnull @.str) #7
  br label %24

9:                                                ; preds = %4
  %10 = icmp eq i32 %2, -1
  br i1 %10, label %11, label %12

11:                                               ; preds = %9
  tail call void (ptr, ...) @cli_errmsg(ptr noundef nonnull @.str.1, i32 noundef -1) #7
  br label %24

12:                                               ; preds = %9
  %13 = tail call i64 @strlen(ptr noundef nonnull dereferenceable(1) %1) #8
  %14 = trunc i64 %13 to i32
  switch i32 %14, label %17 [
    i32 32, label %18
    i32 40, label %15
    i32 64, label %16
  ]

15:                                               ; preds = %12
  br label %18

16:                                               ; preds = %12
  br label %18

17:                                               ; preds = %12
  tail call void (ptr, ...) @cli_errmsg(ptr noundef nonnull @.str.2, ptr noundef nonnull %1) #7
  br label %24

18:                                               ; preds = %12, %16, %15
  %.015 = phi i32 [ 2, %16 ], [ 1, %15 ], [ 0, %12 ]
  %sext = shl i64 %13, 32
  %19 = ashr exact i64 %sext, 32
  %20 = call i32 @cli_hex2str_to(ptr noundef nonnull %1, ptr noundef nonnull %5, i64 noundef %19) #7
  %.not = icmp eq i32 %20, 0
  br i1 %.not, label %22, label %21

21:                                               ; preds = %18
  call void (ptr, ...) @cli_errmsg(ptr noundef nonnull @.str.3, ptr noundef nonnull %1) #7
  br label %24

22:                                               ; preds = %18
  %23 = call i32 @hm_addhash_bin(ptr noundef nonnull %0, ptr noundef nonnull %5, i32 noundef %.015, i32 noundef %2, ptr noundef %3)
  br label %24

24:                                               ; preds = %22, %21, %17, %11, %8
  %.0 = phi i32 [ 3, %11 ], [ 3, %17 ], [ 3, %21 ], [ %23, %22 ], [ 2, %8 ]
  ret i32 %.0
}